target datalayout = "e-m:e-p270:32:32-p271:32:32-p272:64:64-i64:64-i128:128-f80:128-n8:16:32:64-S128"
target triple = "x86_64-pc-linux-gnu"

%struct.H5ES_event_t = type { ptr, ptr, ptr, %struct.H5ES_op_info_t }
%struct.H5ES_op_info_t = type { ptr, ptr, ptr, ptr, i32, i64, i64, i64, i64 }
%struct.H5ES_get_requests_ctx_t = type { ptr, ptr, i64, i64 }

@H5ES_init_g = global i8 0, align 1
@H5_libterm_g = external global i8, align 1
@.str = private unnamed_addr constant [101 x i8] c"generated/home/dtcxzyw/WorkSpace/Projects/compilers/llvm-opt-benchmark/bench/hdf5/hdf5/src/H5ESint.c\00", align 1
@H5E_EVENTSET_g = external global i64, align 8
@__func__.H5ES__get_requests_cb = private unnamed_addr constant [22 x i8] c"H5ES__get_requests_cb\00", align 1
@H5E_CANTREGISTER_g = external global i64, align 8
@.str.20 = private unnamed_addr constant [36 x i8] c"unable to register VOL connector ID\00", align 1

; Function Attrs: nounwind uwtable
define internal i32 @H5ES__get_requests_cb(ptr noundef %0, ptr noundef %1) #0 {
  %3 = alloca ptr, align 8
  %4 = alloca ptr, align 8
  %5 = alloca ptr, align 8
  %6 = alloca i32, align 4
  %7 = alloca i8, align 1
  store ptr %0, ptr %3, align 8, !tbaa !27
  store ptr %1, ptr %4, align 8, !tbaa !18
  call void @llvm.lifetime.start.p0(i64 8, ptr %5) #5
  %8 = load ptr, ptr %4, align 8, !tbaa !18
  store ptr %8, ptr %5, align 8, !tbaa !50
  call void @llvm.lifetime.start.p0(i64 4, ptr %6) #5
  store i32 0, ptr %6, align 4, !tbaa !3
  call void @llvm.lifetime.start.p0(i64 1, ptr %7) #5
  store i8 0, ptr %7, align 1, !tbaa !7
  %9 = load i8, ptr @H5ES_init_g, align 1, !tbaa !7, !range !9, !noundef !10
  %10 = trunc i8 %9 to i1
  br i1 %10, label %15, label %11

11:                                               ; preds = %2
  %12 = load i8, ptr @H5_libterm_g, align 1, !tbaa !7, !range !9, !noundef !10
  %13 = trunc i8 %12 to i1
  %14 = xor i1 %13, true
  br label %15

15:                                               ; preds = %11, %2
  %16 = phi i1 [ true, %2 ], [ %14, %11 ]
  %17 = xor i1 %16, true
  %18 = xor i1 %17, true
  %19 = zext i1 %18 to i32
  %20 = sext i32 %19 to i64
  %21 = call i64 @llvm.expect.i64(i64 %20, i64 1)
  %22 = icmp ne i64 %21, 0
  br i1 %22, label %23, label %91

23:                                               ; preds = %15
  %24 = load ptr, ptr %5, align 8, !tbaa !50
  %25 = getelementptr inbounds nuw %struct.H5ES_get_requests_ctx_t, ptr %24, i32 0, i32 0
  %26 = load ptr, ptr %25, align 8, !tbaa !45
  %27 = icmp ne ptr %26, null
  br i1 %27, label %28, label %62

28:                                               ; preds = %23
  %29 = load ptr, ptr %3, align 8, !tbaa !27
  %30 = getelementptr inbounds nuw %struct.H5ES_event_t, ptr %29, i32 0, i32 0
  %31 = load ptr, ptr %30, align 8, !tbaa !52
  %32 = call ptr @H5VL_obj_get_connector(ptr noundef %31)
  %33 = call i64 @H5VL_conn_register(ptr noundef %32)
  %34 = load ptr, ptr %5, align 8, !tbaa !50
  %35 = getelementptr inbounds nuw %struct.H5ES_get_requests_ctx_t, ptr %34, i32 0, i32 0
  %36 = load ptr, ptr %35, align 8, !tbaa !45
  %37 = load ptr, ptr %5, align 8, !tbaa !50
  %38 = getelementptr inbounds nuw %struct.H5ES_get_requests_ctx_t, ptr %37, i32 0, i32 3
  %39 = load i64, ptr %38, align 8, !tbaa !49
  %40 = getelementptr inbounds nuw i64, ptr %36, i64 %39
  store i64 %33, ptr %40, align 8, !tbaa !11
  %41 = icmp slt i64 %33, 0
  br i1 %41, label %42, label %61

42:                                               ; preds = %28
  br label %43

43:                                               ; preds = %42
  br label %44

44:                                               ; preds = %43
  br label %45

45:                                               ; preds = %44
  %46 = load i64, ptr @H5E_EVENTSET_g, align 8, !tbaa !11
  %47 = load i64, ptr @H5E_CANTREGISTER_g, align 8, !tbaa !11
  %48 = call i32 (ptr, ptr, i32, i64, i64, ptr, ...) @H5E_printf_stack(ptr noundef @.str, ptr noundef @__func__.H5ES__get_requests_cb, i32 noundef 459, i64 noundef %46, i64 noundef %47, ptr noundef @.str.20)
  br label %49

49:                                               ; preds = %45
  br label %50

50:                                               ; preds = %49
  store i8 1, ptr %7, align 1, !tbaa !7
  %51 = load i8, ptr %7, align 1, !tbaa !7, !range !9, !noundef !10
  %52 = trunc i8 %51 to i1
  %53 = zext i1 %52 to i8
  store i8 %53, ptr %7, align 1, !tbaa !7
  br label %54

54:                                               ; preds = %50
  br label %55

55:                                               ; preds = %54
  br label %56

56:                                               ; preds = %55
  store i32 -1, ptr %6, align 4, !tbaa !3
  br label %90

57:                                               ; No predecessors!
  br label %58

58:                                               ; preds = %57
  br label %59

59:                                               ; preds = %58
  br label %60

60:                                               ; preds = %59
  br label %61

61:                                               ; preds = %60, %28
  br label %62

62:                                               ; preds = %61, %23
  %63 = load ptr, ptr %5, align 8, !tbaa !50
  %64 = getelementptr inbounds nuw %struct.H5ES_get_requests_ctx_t, ptr %63, i32 0, i32 1
  %65 = load ptr, ptr %64, align 8, !tbaa !47
  %66 = icmp ne ptr %65, null
  br i1 %66, label %67, label %79

67:                                               ; preds = %62
  %68 = load ptr, ptr %3, align 8, !tbaa !27
  %69 = getelementptr inbounds nuw %struct.H5ES_event_t, ptr %68, i32 0, i32 0
  %70 = load ptr, ptr %69, align 8, !tbaa !52
  %71 = call ptr @H5VL_obj_get_data(ptr noundef %70)
  %72 = load ptr, ptr %5, align 8, !tbaa !50
  %73 = getelementptr inbounds nuw %struct.H5ES_get_requests_ctx_t, ptr %72, i32 0, i32 1
  %74 = load ptr, ptr %73, align 8, !tbaa !47
  %75 = load ptr, ptr %5, align 8, !tbaa !50
  %76 = getelementptr inbounds nuw %struct.H5ES_get_requests_ctx_t, ptr %75, i32 0, i32 3
  %77 = load i64, ptr %76, align 8, !tbaa !49
  %78 = getelementptr inbounds nuw ptr, ptr %74, i64 %77
  store ptr %71, ptr %78, align 8, !tbaa !18
  br label %79

79:                                               ; preds = %67, %62
  %80 = load ptr, ptr %5, align 8, !tbaa !50
  %81 = getelementptr inbounds nuw %struct.H5ES_get_requests_ctx_t, ptr %80, i32 0, i32 3
  %82 = load i64, ptr %81, align 8, !tbaa !49
  %83 = add i64 %82, 1
  store i64 %83, ptr %81, align 8, !tbaa !49
  %84 = load ptr, ptr %5, align 8, !tbaa !50
  %85 = getelementptr inbounds nuw %struct.H5ES_get_requests_ctx_t, ptr %84, i32 0, i32 2
  %86 = load i64, ptr %85, align 8, !tbaa !48
  %87 = icmp eq i64 %83, %86
  br i1 %87, label %88, label %89

88:                                               ; preds = %79
  store i32 1, ptr %6, align 4, !tbaa !3
  br label %89

89:                                               ; preds = %88, %79
  br label %90

90:                                               ; preds = %89, %56
  br label %91

91:                                               ; preds = %90, %15
  %92 = load i32, ptr %6, align 4, !tbaa !3
  call void @llvm.lifetime.end.p0(i64 1, ptr %7) #5
  call void @llvm.lifetime.end.p0(i64 4, ptr %6) #5
  call void @llvm.lifetime.end.p0(i64 8, ptr %5) #5
  ret i32 %92
}