; Function Attrs: nounwind uwtable
define internal range(i32 -1, 2) i32 @H5ES__get_requests_cb(ptr noundef readonly captures(none) %0, ptr noundef captures(none) %1) #0 {
  %3 = load i8, ptr @H5ES_init_g, align 1, !tbaa !3, !range !7, !noundef !8
  %4 = trunc nuw i8 %3 to i1
  %5 = load i8, ptr @H5_libterm_g, align 1, !range !7
  %6 = trunc nuw i8 %5 to i1
  %7 = xor i1 %6, true
  %8 = select i1 %4, i1 true, i1 %7
  br i1 %8, label %9, label %41, !prof !9

9:                                                ; preds = %2
  %10 = load ptr, ptr %1, align 8, !tbaa !35
  %.not = icmp eq ptr %10, null
  br i1 %.not, label %24, label %11

11:                                               ; preds = %9
  %12 = load ptr, ptr %0, align 8, !tbaa !41
  %13 = tail call ptr @H5VL_obj_get_connector(ptr noundef %12) #5
  %14 = tail call i64 @H5VL_conn_register(ptr noundef %13) #5
  %15 = load ptr, ptr %1, align 8, !tbaa !35
  %16 = getelementptr inbounds nuw i8, ptr %1, i64 24
  %17 = load i64, ptr %16, align 8, !tbaa !40
  %18 = getelementptr inbounds nuw i64, ptr %15, i64 %17
  store i64 %14, ptr %18, align 8, !tbaa !10
  %19 = icmp slt i64 %14, 0
  br i1 %19, label %20, label %24

20:                                               ; preds = %11
  %21 = load i64, ptr @H5E_EVENTSET_g, align 8, !tbaa !10
  %22 = load i64, ptr @H5E_CANTREGISTER_g, align 8, !tbaa !10
  %23 = tail call i32 (ptr, ptr, i32, i64, i64, ptr, ...) @H5E_printf_stack(ptr noundef nonnull @.str, ptr noundef nonnull @__func__.H5ES__get_requests_cb, i32 noundef 459, i64 noundef %21, i64 noundef %22, ptr noundef nonnull @.str.20) #5
  br label %41

24:                                               ; preds = %11, %9
  %25 = getelementptr inbounds nuw i8, ptr %1, i64 8
  %26 = load ptr, ptr %25, align 8, !tbaa !38
  %.not12 = icmp eq ptr %26, null
  br i1 %.not12, label %._crit_edge, label %27

._crit_edge:                                      ; preds = %24
  %.phi.trans.insert = getelementptr inbounds nuw i8, ptr %1, i64 24
  %.pre = load i64, ptr %.phi.trans.insert, align 8, !tbaa !40
  br label %34

27:                                               ; preds = %24
  %28 = load ptr, ptr %0, align 8, !tbaa !41
  %29 = tail call ptr @H5VL_obj_get_data(ptr noundef %28) #5
  %30 = load ptr, ptr %25, align 8, !tbaa !38
  %31 = getelementptr inbounds nuw i8, ptr %1, i64 24
  %32 = load i64, ptr %31, align 8, !tbaa !40
  %33 = getelementptr inbounds nuw ptr, ptr %30, i64 %32
  store ptr %29, ptr %33, align 8, !tbaa !42
  br label %34

34:                                               ; preds = %._crit_edge, %27
  %35 = phi i64 [ %.pre, %._crit_edge ], [ %32, %27 ]
  %36 = getelementptr inbounds nuw i8, ptr %1, i64 24
  %37 = add i64 %35, 1
  store i64 %37, ptr %36, align 8, !tbaa !40
  %38 = getelementptr inbounds nuw i8, ptr %1, i64 16
  %39 = load i64, ptr %38, align 8, !tbaa !39
  %40 = icmp eq i64 %37, %39
  %spec.select = zext i1 %40 to i32
  br label %41

41:                                               ; preds = %34, %20, %2
  %.0 = phi i32 [ -1, %20 ], [ 0, %2 ], [ %spec.select, %34 ]
  ret i32 %.0
}